; Function Attrs: inlinehint mustprogress nounwind uwtable
define internal void @"_ZN5arrow8internal6FnOnceIFvRKNS_10FutureImplEEE6FnImplINS_6FutureISt10shared_ptrINS_6BufferEEE20WrapResultOnComplete8CallbackINSC_14ThenOnCompleteIZNS_3ipc16ReadMessageAsyncElilPNS_2io16RandomAccessFileERKNSH_9IOContextEE3$_0NSC_17PassthruOnFailureISN_EEEEEEED0Ev"(ptr noundef nonnull align 8 dereferenceable(72) initializes((0, 8)) %0) unnamed_addr #10 align 2 personality ptr @__gxx_personality_v0 {
  store ptr getelementptr inbounds nuw inrange(-16, 24) (i8, ptr @"_ZTVN5arrow8internal6FnOnceIFvRKNS_10FutureImplEEE6FnImplINS_6FutureISt10shared_ptrINS_6BufferEEE20WrapResultOnComplete8CallbackINSC_14ThenOnCompleteIZNS_3ipc16ReadMessageAsyncElilPNS_2io16RandomAccessFileERKNSH_9IOContextEE3$_0NSC_17PassthruOnFailureISN_EEEEEEEE", i64 16), ptr %0, align 8, !tbaa !20
  %2 = getelementptr inbounds nuw i8, ptr %0, i64 64
  %3 = load ptr, ptr %2, align 8, !tbaa !14
  %.not.i.i.i.i.i.i = icmp eq ptr %3, null
  br i1 %.not.i.i.i.i.i.i, label %_ZN5arrow6FutureISt10shared_ptrINS_3ipc7MessageEEED2Ev.exit.i.i.i, label %4

4:                                                ; preds = %1
  %5 = getelementptr inbounds nuw i8, ptr %3, i64 8
  %6 = load atomic i64, ptr %5 acquire, align 8
  %7 = icmp eq i64 %6, 4294967297
  %8 = trunc i64 %6 to i32
  br i1 %7, label %9, label %17

9:                                                ; preds = %4
  store i32 0, ptr %5, align 8, !tbaa !16
  %10 = getelementptr inbounds nuw i8, ptr %3, i64 12
  store i32 0, ptr %10, align 4, !tbaa !19
  %11 = load ptr, ptr %3, align 8, !tbaa !20
  %12 = getelementptr inbounds nuw i8, ptr %11, i64 16
  %13 = load ptr, ptr %12, align 8
  tail call void %13(ptr noundef nonnull align 8 dereferenceable(16) %3) #29
  %14 = load ptr, ptr %3, align 8, !tbaa !20
  %15 = getelementptr inbounds nuw i8, ptr %14, i64 24
  %16 = load ptr, ptr %15, align 8
  tail call void %16(ptr noundef nonnull align 8 dereferenceable(16) %3) #29
  br label %_ZN5arrow6FutureISt10shared_ptrINS_3ipc7MessageEEED2Ev.exit.i.i.i

17:                                               ; preds = %4
  %18 = load i8, ptr @__libc_single_threaded, align 1, !tbaa !22
  %.not.i.i.i.i.i.i.i = icmp eq i8 %18, 0
  br i1 %.not.i.i.i.i.i.i.i, label %21, label %19

19:                                               ; preds = %17
  %20 = add nsw i32 %8, -1
  store i32 %20, ptr %5, align 4, !tbaa !23
  br label %_ZN9__gnu_cxx27__exchange_and_add_dispatchEPii.exit.i.i.i.i.i.i.i

21:                                               ; preds = %17
  %22 = atomicrmw volatile add ptr %5, i32 -1 acq_rel, align 4
  br label %_ZN9__gnu_cxx27__exchange_and_add_dispatchEPii.exit.i.i.i.i.i.i.i

_ZN9__gnu_cxx27__exchange_and_add_dispatchEPii.exit.i.i.i.i.i.i.i: ; preds = %21, %19
  %.0.i.i.i.i.i.i.i.i = phi i32 [ %8, %19 ], [ %22, %21 ]
  %23 = icmp eq i32 %.0.i.i.i.i.i.i.i.i, 1
  br i1 %23, label %24, label %_ZN5arrow6FutureISt10shared_ptrINS_3ipc7MessageEEED2Ev.exit.i.i.i, !prof !24

24:                                               ; preds = %_ZN9__gnu_cxx27__exchange_and_add_dispatchEPii.exit.i.i.i.i.i.i.i
  tail call void @_ZNSt16_Sp_counted_baseILN9__gnu_cxx12_Lock_policyE2EE24_M_release_last_use_coldEv(ptr noundef nonnull align 8 dereferenceable(16) %3) #29
  br label %_ZN5arrow6FutureISt10shared_ptrINS_3ipc7MessageEEED2Ev.exit.i.i.i

_ZN5arrow6FutureISt10shared_ptrINS_3ipc7MessageEEED2Ev.exit.i.i.i: ; preds = %24, %_ZN9__gnu_cxx27__exchange_and_add_dispatchEPii.exit.i.i.i.i.i.i.i, %9, %1
  %25 = getelementptr inbounds nuw i8, ptr %0, i64 24
  %.val.i.i.i = load ptr, ptr %25, align 8, !tbaa !14
  %.not.i.i.i1.i.i.i = icmp eq ptr %.val.i.i.i, null
  br i1 %.not.i.i.i1.i.i.i, label %"_ZN5arrow8internal6FnOnceIFvRKNS_10FutureImplEEE6FnImplINS_6FutureISt10shared_ptrINS_6BufferEEE20WrapResultOnComplete8CallbackINSC_14ThenOnCompleteIZNS_3ipc16ReadMessageAsyncElilPNS_2io16RandomAccessFileERKNSH_9IOContextEE3$_0NSC_17PassthruOnFailureISN_EEEEEEED2Ev.exit", label %26

26:                                               ; preds = %_ZN5arrow6FutureISt10shared_ptrINS_3ipc7MessageEEED2Ev.exit.i.i.i
  %27 = getelementptr inbounds nuw i8, ptr %.val.i.i.i, i64 8
  %28 = load atomic i64, ptr %27 acquire, align 8
  %29 = icmp eq i64 %28, 4294967297
  %30 = trunc i64 %28 to i32
  br i1 %29, label %31, label %39

31:                                               ; preds = %26
  store i32 0, ptr %27, align 8, !tbaa !16
  %32 = getelementptr inbounds nuw i8, ptr %.val.i.i.i, i64 12
  store i32 0, ptr %32, align 4, !tbaa !19
  %33 = load ptr, ptr %.val.i.i.i, align 8, !tbaa !20
  %34 = getelementptr inbounds nuw i8, ptr %33, i64 16
  %35 = load ptr, ptr %34, align 8
  tail call void %35(ptr noundef nonnull align 8 dereferenceable(16) %.val.i.i.i) #29
  %36 = load ptr, ptr %.val.i.i.i, align 8, !tbaa !20
  %37 = getelementptr inbounds nuw i8, ptr %36, i64 24
  %38 = load ptr, ptr %37, align 8
  tail call void %38(ptr noundef nonnull align 8 dereferenceable(16) %.val.i.i.i) #29
  br label %"_ZN5arrow8internal6FnOnceIFvRKNS_10FutureImplEEE6FnImplINS_6FutureISt10shared_ptrINS_6BufferEEE20WrapResultOnComplete8CallbackINSC_14ThenOnCompleteIZNS_3ipc16ReadMessageAsyncElilPNS_2io16RandomAccessFileERKNSH_9IOContextEE3$_0NSC_17PassthruOnFailureISN_EEEEEEED2Ev.exit"

39:                                               ; preds = %26
  %40 = load i8, ptr @__libc_single_threaded, align 1, !tbaa !22
  %.not.i.i.i.i2.i.i.i = icmp eq i8 %40, 0
  br i1 %.not.i.i.i.i2.i.i.i, label %43, label %41

41:                                               ; preds = %39
  %42 = add nsw i32 %30, -1
  store i32 %42, ptr %27, align 4, !tbaa !23
  br label %_ZN9__gnu_cxx27__exchange_and_add_dispatchEPii.exit.i.i.i.i3.i.i.i

43:                                               ; preds = %39
  %44 = atomicrmw volatile add ptr %27, i32 -1 acq_rel, align 4
  br label %_ZN9__gnu_cxx27__exchange_and_add_dispatchEPii.exit.i.i.i.i3.i.i.i

_ZN9__gnu_cxx27__exchange_and_add_dispatchEPii.exit.i.i.i.i3.i.i.i: ; preds = %43, %41
  %.0.i.i.i.i.i4.i.i.i = phi i32 [ %30, %41 ], [ %44, %43 ]
  %45 = icmp eq i32 %.0.i.i.i.i.i4.i.i.i, 1
  br i1 %45, label %46, label %"_ZN5arrow8internal6FnOnceIFvRKNS_10FutureImplEEE6FnImplINS_6FutureISt10shared_ptrINS_6BufferEEE20WrapResultOnComplete8CallbackINSC_14ThenOnCompleteIZNS_3ipc16ReadMessageAsyncElilPNS_2io16RandomAccessFileERKNSH_9IOContextEE3$_0NSC_17PassthruOnFailureISN_EEEEEEED2Ev.exit", !prof !24

46:                                               ; preds = %_ZN9__gnu_cxx27__exchange_and_add_dispatchEPii.exit.i.i.i.i3.i.i.i
  tail call void @_ZNSt16_Sp_counted_baseILN9__gnu_cxx12_Lock_policyE2EE24_M_release_last_use_coldEv(ptr noundef nonnull align 8 dereferenceable(16) %.val.i.i.i) #29
  br label %"_ZN5arrow8internal6FnOnceIFvRKNS_10FutureImplEEE6FnImplINS_6FutureISt10shared_ptrINS_6BufferEEE20WrapResultOnComplete8CallbackINSC_14ThenOnCompleteIZNS_3ipc16ReadMessageAsyncElilPNS_2io16RandomAccessFileERKNSH_9IOContextEE3$_0NSC_17PassthruOnFailureISN_EEEEEEED2Ev.exit"

"_ZN5arrow8internal6FnOnceIFvRKNS_10FutureImplEEE6FnImplINS_6FutureISt10shared_ptrINS_6BufferEEE20WrapResultOnComplete8CallbackINSC_14ThenOnCompleteIZNS_3ipc16ReadMessageAsyncElilPNS_2io16RandomAccessFileERKNSH_9IOContextEE3$_0NSC_17PassthruOnFailureISN_EEEEEEED2Ev.exit": ; preds = %_ZN5arrow6FutureISt10shared_ptrINS_3ipc7MessageEEED2Ev.exit.i.i.i, %31, %_ZN9__gnu_cxx27__exchange_and_add_dispatchEPii.exit.i.i.i.i3.i.i.i, %46
  tail call void @_ZdlPvm(ptr noundef nonnull %0, i64 noundef 72) #30
  ret void
}